; Function Attrs: mustprogress uwtable
define void @_ZN6casadi11JitFunctionC2ERKNSt7__cxx1112basic_stringIcSt11char_traitsIcESaIcEEES8_RKSt6vectorIS6_SaIS6_EESD_RKS9_INS_8SparsityESaISE_EESI_(ptr noundef nonnull align 8 dereferenceable(1408) %0, ptr noundef nonnull align 8 dereferenceable(32) %1, ptr noundef nonnull align 8 dereferenceable(32) %2, ptr noundef nonnull align 8 dereferenceable(24) %3, ptr noundef nonnull align 8 dereferenceable(24) %4, ptr noundef nonnull align 8 dereferenceable(24) %5, ptr noundef nonnull align 8 dereferenceable(24) %6) unnamed_addr #3 align 2 personality ptr @__gxx_personality_v0 {
  tail call void @_ZN6casadi16FunctionInternalC2ERKNSt7__cxx1112basic_stringIcSt11char_traitsIcESaIcEEE(ptr noundef nonnull align 8 dereferenceable(1304) %0, ptr noundef nonnull align 8 dereferenceable(32) %1)
  store ptr getelementptr inbounds ({ [112 x ptr] }, ptr @_ZTVN6casadi11JitFunctionE, i64 0, i32 0, i64 2), ptr %0, align 8
  %8 = getelementptr inbounds i8, ptr %0, i64 1312
  invoke void @_ZNSt7__cxx1112basic_stringIcSt11char_traitsIcESaIcEEC1ERKS4_(ptr noundef nonnull align 8 dereferenceable(32) %8, ptr noundef nonnull align 8 dereferenceable(32) %2)
          to label %9 unwind label %27

9:                                                ; preds = %7
  %10 = getelementptr inbounds i8, ptr %0, i64 1344
  tail call void @_ZNSt7__cxx1112basic_stringIcSt11char_traitsIcESaIcEEC1Ev(ptr noundef nonnull align 8 dereferenceable(32) %10) #13
  %11 = getelementptr inbounds i8, ptr %0, i64 1376
  tail call void @_ZNSt7__cxx1112basic_stringIcSt11char_traitsIcESaIcEEC1Ev(ptr noundef nonnull align 8 dereferenceable(32) %11) #13
  %12 = getelementptr inbounds i8, ptr %0, i64 272
  %13 = invoke noundef nonnull align 8 dereferenceable(24) ptr @_ZNSt6vectorIN6casadi8SparsityESaIS1_EEaSERKS3_(ptr noundef nonnull align 8 dereferenceable(24) %12, ptr noundef nonnull align 8 dereferenceable(24) %5)
          to label %14 unwind label %29

14:                                               ; preds = %9
  %15 = getelementptr inbounds i8, ptr %0, i64 296
  %16 = invoke noundef nonnull align 8 dereferenceable(24) ptr @_ZNSt6vectorIN6casadi8SparsityESaIS1_EEaSERKS3_(ptr noundef nonnull align 8 dereferenceable(24) %15, ptr noundef nonnull align 8 dereferenceable(24) %6)
          to label %17 unwind label %29

17:                                               ; preds = %14
  %18 = getelementptr inbounds i8, ptr %0, i64 320
  %19 = invoke noundef nonnull align 8 dereferenceable(24) ptr @_ZNSt6vectorINSt7__cxx1112basic_stringIcSt11char_traitsIcESaIcEEESaIS5_EEaSERKS7_(ptr noundef nonnull align 8 dereferenceable(24) %18, ptr noundef nonnull align 8 dereferenceable(24) %3)
          to label %20 unwind label %29

20:                                               ; preds = %17
  %21 = getelementptr inbounds i8, ptr %0, i64 344
  %22 = invoke noundef nonnull align 8 dereferenceable(24) ptr @_ZNSt6vectorINSt7__cxx1112basic_stringIcSt11char_traitsIcESaIcEEESaIS5_EEaSERKS7_(ptr noundef nonnull align 8 dereferenceable(24) %21, ptr noundef nonnull align 8 dereferenceable(24) %4)
          to label %23 unwind label %29

23:                                               ; preds = %20
  %24 = getelementptr inbounds i8, ptr %0, i64 368
  store i8 1, ptr %24, align 8
  %25 = getelementptr inbounds i8, ptr %0, i64 1304
  store i8 1, ptr %25, align 8
  %26 = getelementptr inbounds i8, ptr %0, i64 819
  store i8 1, ptr %26, align 1
  ret void

27:                                               ; preds = %7
  %28 = landingpad { ptr, i32 }
          cleanup
  br label %31

29:                                               ; preds = %20, %17, %14, %9
  %30 = landingpad { ptr, i32 }
          cleanup
  tail call void @_ZNSt7__cxx1112basic_stringIcSt11char_traitsIcESaIcEED1Ev(ptr noundef nonnull align 8 dereferenceable(32) %11) #13
  tail call void @_ZNSt7__cxx1112basic_stringIcSt11char_traitsIcESaIcEED1Ev(ptr noundef nonnull align 8 dereferenceable(32) %10) #13
  tail call void @_ZNSt7__cxx1112basic_stringIcSt11char_traitsIcESaIcEED1Ev(ptr noundef nonnull align 8 dereferenceable(32) %8) #13
  br label %31

31:                                               ; preds = %29, %27
  %.pn = phi { ptr, i32 } [ %30, %29 ], [ %28, %27 ]
  tail call void @_ZN6casadi16FunctionInternalD2Ev(ptr noundef nonnull align 8 dereferenceable(1304) %0) #13
  resume { ptr, i32 } %.pn
}